; Function Attrs: mustprogress nounwind uwtable
define hidden void @_ZN13ThreadService23reset_peak_thread_countEv() local_unnamed_addr #0 align 2 {
  %1 = load ptr, ptr @Threads_lock, align 8
  %.not.i.i = icmp eq ptr %1, null
  br i1 %.not.i.i, label %_ZN11MutexLockerC2EP5MutexNS0_18SafepointCheckFlagE.exit.thread, label %7

_ZN11MutexLockerC2EP5MutexNS0_18SafepointCheckFlagE.exit.thread: ; preds = %0
  %2 = load ptr, ptr @_ZN13ThreadService19_peak_threads_countE, align 8
  %3 = load volatile i32, ptr @_ZN13ThreadService21_atomic_threads_countE, align 4
  %4 = sext i32 %3 to i64
  %5 = getelementptr inbounds i8, ptr %2, i64 40
  %6 = load ptr, ptr %5, align 8
  store i64 %4, ptr %6, align 8
  br label %_ZN11MutexLockerD2Ev.exit

7:                                                ; preds = %0
  tail call void @_ZN5Mutex4lockEv(ptr noundef nonnull align 8 dereferenceable(104) %1) #12
  %8 = load ptr, ptr @_ZN13ThreadService19_peak_threads_countE, align 8
  %9 = load volatile i32, ptr @_ZN13ThreadService21_atomic_threads_countE, align 4
  %10 = sext i32 %9 to i64
  %11 = getelementptr inbounds i8, ptr %8, i64 40
  %12 = load ptr, ptr %11, align 8
  store i64 %10, ptr %12, align 8
  tail call void @_ZN5Mutex6unlockEv(ptr noundef nonnull align 8 dereferenceable(104) %1) #12
  br label %_ZN11MutexLockerD2Ev.exit

_ZN11MutexLockerD2Ev.exit:                        ; preds = %_ZN11MutexLockerC2EP5MutexNS0_18SafepointCheckFlagE.exit.thread, %7
  ret void
}